target datalayout = "e-m:e-p270:32:32-p271:32:32-p272:64:64-i64:64-i128:128-f80:128-n8:16:32:64-S128"
target triple = "x86_64-pc-linux-gnu"

%struct.prte_oob_base_t = type { i32, i32, i32, i32, i32, %struct.pmix_list_t, i32, %struct.pmix_list_t, i32, i32, i8, ptr, ptr, ptr, ptr, i8, ptr, ptr, ptr, ptr, %struct.pmix_list_t, ptr, i32, %struct.pmix_list_t, %struct.pmix_thread_t, i8, %struct.timeval, [2 x i32], i32, i32, i32, i32, i32 }
%struct.pmix_list_t = type { %struct.pmix_object_t, %struct.pmix_list_item_t, i64 }
%struct.pmix_object_t = type { %union.pthread_mutex_t, ptr, i32, %struct.pmix_tma }
%union.pthread_mutex_t = type { %struct.__pthread_mutex_s }
%struct.__pthread_mutex_s = type { i32, i32, i32, i32, i32, i16, i16, %struct.__pthread_internal_list }
%struct.__pthread_internal_list = type { ptr, ptr }
%struct.pmix_tma = type { ptr, ptr, ptr, ptr, ptr, ptr, ptr, ptr }
%struct.pmix_list_item_t = type { %struct.pmix_object_t, ptr, ptr, i32 }
%struct.pmix_thread_t = type { %struct.pmix_object_t, ptr, ptr, i64 }
%struct.timeval = type { i64, i64 }
%struct.pmix_output_desc_t = type { i8, i8, i32, i8, i32, ptr, ptr, i32, ptr, i32, i8, i8, i8, i8, ptr, i32, i32 }
%struct.prte_process_info_t = type { %struct.pmix_proc, %struct.pmix_proc, ptr, %struct.pmix_proc, i32, i32, i32, ptr, ptr, i32, i8, ptr, i16, ptr, ptr, i8, ptr, i8 }
%struct.pmix_proc = type { [256 x i8], i32 }
%struct.pmix_class_t = type { ptr, ptr, ptr, ptr, i32, i32, ptr, ptr, i64 }
%struct.prte_oob_tcp_send_t = type { %struct.pmix_list_item_t, %struct.event, ptr, i8, %struct.prte_oob_tcp_hdr_t, ptr, ptr, i8, i32, ptr, i64 }
%struct.event = type { %struct.event_callback, %union.anon.0, i32, ptr, %union.anon.2, i16, i16, %struct.timeval }
%struct.event_callback = type { %struct.anon, i16, i8, i8, %union.anon, ptr }
%struct.anon = type { ptr, ptr }
%union.anon = type { ptr }
%union.anon.0 = type { %struct.anon.1 }
%struct.anon.1 = type { ptr, ptr }
%union.anon.2 = type { %struct.anon.3 }
%struct.anon.3 = type { %struct.anon.4, %struct.timeval }
%struct.anon.4 = type { ptr, ptr }
%struct.prte_oob_tcp_hdr_t = type { %struct.pmix_proc, %struct.pmix_proc, i32, i32, i32, i8, [32 x i8] }
%struct.prte_oob_tcp_peer_t = type { %struct.pmix_list_item_t, %struct.pmix_proc, ptr, i32, %struct.pmix_list_t, ptr, i32, i32, %struct.event, i8, %struct.event, i8, %struct.event, i8, %struct.pmix_list_t, ptr, ptr }
%struct.prte_oob_tcp_conn_op_t = type { %struct.pmix_object_t, ptr, %struct.event }

@prte_oob_base = external global %struct.prte_oob_base_t, align 8
@pmix_output_info = external global [0 x %struct.pmix_output_desc_t], align 8
@.str = private unnamed_addr constant [25 x i8] c"%s:[%s:%d] connect to %s\00", align 1
@prte_process_info = external global %struct.prte_process_info_t, align 8
@.str.1 = private unnamed_addr constant [27 x i8] c"rml/oob/oob_tcp_sendrecv.c\00", align 1
@prte_oob_tcp_conn_op_t_class = external global %struct.pmix_class_t, align 8
@prte_event_base = external global ptr, align 8
@pmix_class_init_epoch = external global i32, align 4

; Function Attrs: inlinehint nounwind uwtable
define internal void @pmix_obj_run_constructors(ptr noundef %0) #2 {
  %2 = alloca ptr, align 8
  %3 = alloca ptr, align 8
  store ptr %0, ptr %2, align 8, !tbaa !59
  call void @llvm.lifetime.start.p0(i64 8, ptr %3) #12
  %4 = load ptr, ptr %2, align 8, !tbaa !59
  %5 = getelementptr inbounds nuw %struct.pmix_object_t, ptr %4, i32 0, i32 1
  %6 = load ptr, ptr %5, align 8, !tbaa !62
  %7 = getelementptr inbounds nuw %struct.pmix_class_t, ptr %6, i32 0, i32 6
  %8 = load ptr, ptr %7, align 8, !tbaa !140
  store ptr %8, ptr %3, align 8, !tbaa !9
  br label %9

9:                                                ; preds = %13, %1
  %10 = load ptr, ptr %3, align 8, !tbaa !9
  %11 = load ptr, ptr %10, align 8, !tbaa !9
  %12 = icmp ne ptr null, %11
  br i1 %12, label %13, label %19

13:                                               ; preds = %9
  %14 = load ptr, ptr %3, align 8, !tbaa !9
  %15 = load ptr, ptr %14, align 8, !tbaa !9
  %16 = load ptr, ptr %2, align 8, !tbaa !59
  call void %15(ptr noundef %16)
  %17 = load ptr, ptr %3, align 8, !tbaa !9
  %18 = getelementptr inbounds nuw ptr, ptr %17, i32 1
  store ptr %18, ptr %3, align 8, !tbaa !9
  br label %9, !llvm.loop !141

19:                                               ; preds = %9
  call void @llvm.lifetime.end.p0(i64 8, ptr %3) #12
  ret void
}

; Function Attrs: inlinehint nounwind uwtable
define internal ptr @pmix_tma_malloc(ptr noundef %0, i64 noundef %1) #2 {
  %3 = alloca ptr, align 8
  %4 = alloca ptr, align 8
  %5 = alloca i64, align 8
  store ptr %0, ptr %4, align 8, !tbaa !55
  store i64 %1, ptr %5, align 8, !tbaa !95
  %6 = load ptr, ptr %4, align 8, !tbaa !55
  %7 = icmp ne ptr null, %6
  br i1 %7, label %8, label %15

8:                                                ; preds = %2
  %9 = load ptr, ptr %4, align 8, !tbaa !55
  %10 = getelementptr inbounds nuw %struct.pmix_tma, ptr %9, i32 0, i32 0
  %11 = load ptr, ptr %10, align 8, !tbaa !139
  %12 = load ptr, ptr %4, align 8, !tbaa !55
  %13 = load i64, ptr %5, align 8, !tbaa !95
  %14 = call ptr %11(ptr noundef %12, i64 noundef %13)
  store ptr %14, ptr %3, align 8
  br label %18

15:                                               ; preds = %2
  %16 = load i64, ptr %5, align 8, !tbaa !95
  %17 = call noalias ptr @malloc(i64 noundef %16) #15
  store ptr %17, ptr %3, align 8
  br label %18

18:                                               ; preds = %15, %8
  %19 = load ptr, ptr %3, align 8
  ret ptr %19
}

; Function Attrs: inlinehint nounwind uwtable
define internal void @pmix_atomic_wmb() #2 {
  fence release
  ret void
}

; Function Attrs: inlinehint nounwind uwtable
define internal ptr @pmix_obj_new_tma(ptr noundef %0, ptr noundef %1) #2 {
  %3 = alloca ptr, align 8
  %4 = alloca ptr, align 8
  %5 = alloca ptr, align 8
  store ptr %0, ptr %3, align 8, !tbaa !54
  store ptr %1, ptr %4, align 8, !tbaa !55
  call void @llvm.lifetime.start.p0(i64 8, ptr %5) #12
  %6 = load ptr, ptr %4, align 8, !tbaa !55
  %7 = load ptr, ptr %3, align 8, !tbaa !54
  %8 = getelementptr inbounds nuw %struct.pmix_class_t, ptr %7, i32 0, i32 8
  %9 = load i64, ptr %8, align 8, !tbaa !57
  %10 = call ptr @pmix_tma_malloc(ptr noundef %6, i64 noundef %9)
  store ptr %10, ptr %5, align 8, !tbaa !59
  %11 = load i32, ptr @pmix_class_init_epoch, align 4, !tbaa !3
  %12 = load ptr, ptr %3, align 8, !tbaa !54
  %13 = getelementptr inbounds nuw %struct.pmix_class_t, ptr %12, i32 0, i32 4
  %14 = load i32, ptr %13, align 8, !tbaa !61
  %15 = icmp ne i32 %11, %14
  br i1 %15, label %16, label %18

16:                                               ; preds = %2
  %17 = load ptr, ptr %3, align 8, !tbaa !54
  call void @pmix_class_initialize(ptr noundef %17)
  br label %18

18:                                               ; preds = %16, %2
  %19 = load ptr, ptr %5, align 8, !tbaa !59
  %20 = icmp ne ptr null, %19
  br i1 %20, label %21, label %60

21:                                               ; preds = %18
  %22 = load ptr, ptr %5, align 8, !tbaa !59
  %23 = getelementptr inbounds nuw %struct.pmix_object_t, ptr %22, i32 0, i32 0
  %24 = call i32 @pthread_mutex_init(ptr noundef %23, ptr noundef null) #12
  %25 = load ptr, ptr %3, align 8, !tbaa !54
  %26 = load ptr, ptr %5, align 8, !tbaa !59
  %27 = getelementptr inbounds nuw %struct.pmix_object_t, ptr %26, i32 0, i32 1
  store ptr %25, ptr %27, align 8, !tbaa !62
  %28 = load ptr, ptr %5, align 8, !tbaa !59
  %29 = getelementptr inbounds nuw %struct.pmix_object_t, ptr %28, i32 0, i32 2
  store i32 1, ptr %29, align 8, !tbaa !63
  %30 = load ptr, ptr %4, align 8, !tbaa !55
  %31 = icmp eq ptr null, %30
  br i1 %31, label %32, label %54

32:                                               ; preds = %21
  %33 = load ptr, ptr %5, align 8, !tbaa !59
  %34 = getelementptr inbounds nuw %struct.pmix_object_t, ptr %33, i32 0, i32 3
  %35 = getelementptr inbounds nuw %struct.pmix_tma, ptr %34, i32 0, i32 0
  store ptr null, ptr %35, align 8, !tbaa !64
  %36 = load ptr, ptr %5, align 8, !tbaa !59
  %37 = getelementptr inbounds nuw %struct.pmix_object_t, ptr %36, i32 0, i32 3
  %38 = getelementptr inbounds nuw %struct.pmix_tma, ptr %37, i32 0, i32 1
  store ptr null, ptr %38, align 8, !tbaa !65
  %39 = load ptr, ptr %5, align 8, !tbaa !59
  %40 = getelementptr inbounds nuw %struct.pmix_object_t, ptr %39, i32 0, i32 3
  %41 = getelementptr inbounds nuw %struct.pmix_tma, ptr %40, i32 0, i32 2
  store ptr null, ptr %41, align 8, !tbaa !66
  %42 = load ptr, ptr %5, align 8, !tbaa !59
  %43 = getelementptr inbounds nuw %struct.pmix_object_t, ptr %42, i32 0, i32 3
  %44 = getelementptr inbounds nuw %struct.pmix_tma, ptr %43, i32 0, i32 3
  store ptr null, ptr %44, align 8, !tbaa !67
  %45 = load ptr, ptr %5, align 8, !tbaa !59
  %46 = getelementptr inbounds nuw %struct.pmix_object_t, ptr %45, i32 0, i32 3
  %47 = getelementptr inbounds nuw %struct.pmix_tma, ptr %46, i32 0, i32 5
  store ptr null, ptr %47, align 8, !tbaa !68
  %48 = load ptr, ptr %5, align 8, !tbaa !59
  %49 = getelementptr inbounds nuw %struct.pmix_object_t, ptr %48, i32 0, i32 3
  %50 = getelementptr inbounds nuw %struct.pmix_tma, ptr %49, i32 0, i32 6
  store ptr null, ptr %50, align 8, !tbaa !69
  %51 = load ptr, ptr %5, align 8, !tbaa !59
  %52 = getelementptr inbounds nuw %struct.pmix_object_t, ptr %51, i32 0, i32 3
  %53 = getelementptr inbounds nuw %struct.pmix_tma, ptr %52, i32 0, i32 7
  store ptr null, ptr %53, align 8, !tbaa !70
  br label %58

54:                                               ; preds = %21
  %55 = load ptr, ptr %5, align 8, !tbaa !59
  %56 = getelementptr inbounds nuw %struct.pmix_object_t, ptr %55, i32 0, i32 3
  %57 = load ptr, ptr %4, align 8, !tbaa !55
  call void @llvm.memcpy.p0.p0.i64(ptr align 8 %56, ptr align 8 %57, i64 64, i1 false), !tbaa.struct !71
  br label %58

58:                                               ; preds = %54, %32
  %59 = load ptr, ptr %5, align 8, !tbaa !59
  call void @pmix_obj_run_constructors(ptr noundef %59)
  br label %60

60:                                               ; preds = %58, %18
  %61 = load ptr, ptr %5, align 8, !tbaa !59
  call void @llvm.lifetime.end.p0(i64 8, ptr %5) #12
  ret ptr %61
}

; Function Attrs: inlinehint nounwind uwtable
define internal void @_pmix_list_append(ptr noundef %0, ptr noundef %1) #2 {
  %3 = alloca ptr, align 8
  %4 = alloca ptr, align 8
  %5 = alloca ptr, align 8
  store ptr %0, ptr %3, align 8, !tbaa !48
  store ptr %1, ptr %4, align 8, !tbaa !50
  call void @llvm.lifetime.start.p0(i64 8, ptr %5) #12
  %6 = load ptr, ptr %3, align 8, !tbaa !48
  %7 = getelementptr inbounds nuw %struct.pmix_list_t, ptr %6, i32 0, i32 1
  store ptr %7, ptr %5, align 8, !tbaa !50
  %8 = load ptr, ptr %5, align 8, !tbaa !50
  %9 = getelementptr inbounds nuw %struct.pmix_list_item_t, ptr %8, i32 0, i32 2
  %10 = load ptr, ptr %9, align 8, !tbaa !51
  %11 = load ptr, ptr %4, align 8, !tbaa !50
  %12 = getelementptr inbounds nuw %struct.pmix_list_item_t, ptr %11, i32 0, i32 2
  store ptr %10, ptr %12, align 8, !tbaa !51
  %13 = load ptr, ptr %4, align 8, !tbaa !50
  %14 = load ptr, ptr %5, align 8, !tbaa !50
  %15 = getelementptr inbounds nuw %struct.pmix_list_item_t, ptr %14, i32 0, i32 2
  %16 = load ptr, ptr %15, align 8, !tbaa !51
  %17 = getelementptr inbounds nuw %struct.pmix_list_item_t, ptr %16, i32 0, i32 1
  store volatile ptr %13, ptr %17, align 8, !tbaa !52
  %18 = load ptr, ptr %5, align 8, !tbaa !50
  %19 = load ptr, ptr %4, align 8, !tbaa !50
  %20 = getelementptr inbounds nuw %struct.pmix_list_item_t, ptr %19, i32 0, i32 1
  store ptr %18, ptr %20, align 8, !tbaa !52
  %21 = load ptr, ptr %4, align 8, !tbaa !50
  %22 = load ptr, ptr %5, align 8, !tbaa !50
  %23 = getelementptr inbounds nuw %struct.pmix_list_item_t, ptr %22, i32 0, i32 2
  store ptr %21, ptr %23, align 8, !tbaa !51
  %24 = load ptr, ptr %3, align 8, !tbaa !48
  %25 = getelementptr inbounds nuw %struct.pmix_list_t, ptr %24, i32 0, i32 2
  %26 = load volatile i64, ptr %25, align 8, !tbaa !53
  %27 = add i64 %26, 1
  store volatile i64 %27, ptr %25, align 8, !tbaa !53
  call void @llvm.lifetime.end.p0(i64 8, ptr %5) #12
  ret void
}

; Function Attrs: inlinehint nounwind uwtable
define internal void @pmix_atomic_rmb() #2 {
  fence acquire
  ret void
}

; Function Attrs: nounwind uwtable
define void @prte_oob_tcp_queue_msg(i32 noundef %0, i16 noundef signext %1, ptr noundef %2) #0 {
  %4 = alloca i32, align 4
  %5 = alloca i16, align 2
  %6 = alloca ptr, align 8
  %7 = alloca ptr, align 8
  %8 = alloca ptr, align 8
  %9 = alloca ptr, align 8
  store i32 %0, ptr %4, align 4, !tbaa !3
  store i16 %1, ptr %5, align 2, !tbaa !7
  store ptr %2, ptr %6, align 8, !tbaa !9
  call void @llvm.lifetime.start.p0(i64 8, ptr %7) #12
  %10 = load ptr, ptr %6, align 8, !tbaa !9
  store ptr %10, ptr %7, align 8, !tbaa !9
  call void @llvm.lifetime.start.p0(i64 8, ptr %8) #12
  call void @pmix_atomic_rmb()
  %11 = load ptr, ptr %7, align 8, !tbaa !9
  %12 = getelementptr inbounds nuw %struct.prte_oob_tcp_send_t, ptr %11, i32 0, i32 2
  %13 = load ptr, ptr %12, align 8, !tbaa !11
  store ptr %13, ptr %8, align 8, !tbaa !9
  %14 = load ptr, ptr %8, align 8, !tbaa !9
  %15 = getelementptr inbounds nuw %struct.prte_oob_tcp_peer_t, ptr %14, i32 0, i32 15
  %16 = load ptr, ptr %15, align 8, !tbaa !31
  %17 = icmp eq ptr null, %16
  br i1 %17, label %18, label %22

18:                                               ; preds = %3
  %19 = load ptr, ptr %7, align 8, !tbaa !9
  %20 = load ptr, ptr %8, align 8, !tbaa !9
  %21 = getelementptr inbounds nuw %struct.prte_oob_tcp_peer_t, ptr %20, i32 0, i32 15
  store ptr %19, ptr %21, align 8, !tbaa !31
  br label %27

22:                                               ; preds = %3
  %23 = load ptr, ptr %8, align 8, !tbaa !9
  %24 = getelementptr inbounds nuw %struct.prte_oob_tcp_peer_t, ptr %23, i32 0, i32 14
  %25 = load ptr, ptr %7, align 8, !tbaa !9
  %26 = getelementptr inbounds nuw %struct.prte_oob_tcp_send_t, ptr %25, i32 0, i32 0
  call void @_pmix_list_append(ptr noundef %24, ptr noundef %26)
  br label %27

27:                                               ; preds = %22, %18
  %28 = load ptr, ptr %7, align 8, !tbaa !9
  %29 = getelementptr inbounds nuw %struct.prte_oob_tcp_send_t, ptr %28, i32 0, i32 3
  %30 = load i8, ptr %29, align 8, !tbaa !34, !range !35, !noundef !36
  %31 = trunc i8 %30 to i1
  br i1 %31, label %32, label %89

32:                                               ; preds = %27
  %33 = load ptr, ptr %8, align 8, !tbaa !9
  %34 = getelementptr inbounds nuw %struct.prte_oob_tcp_peer_t, ptr %33, i32 0, i32 6
  %35 = load i32, ptr %34, align 8, !tbaa !37
  %36 = icmp ne i32 5, %35
  br i1 %36, label %37, label %76

37:                                               ; preds = %32
  %38 = load ptr, ptr %8, align 8, !tbaa !9
  %39 = getelementptr inbounds nuw %struct.prte_oob_tcp_peer_t, ptr %38, i32 0, i32 6
  store i32 3, ptr %39, align 8, !tbaa !37
  br label %40

40:                                               ; preds = %37
  call void @llvm.lifetime.start.p0(i64 8, ptr %9) #12
  %41 = load i32, ptr @prte_oob_base, align 8, !tbaa !38
  %42 = icmp sge i32 %41, 0
  br i1 %42, label %43, label %59

43:                                               ; preds = %40
  %44 = load i32, ptr @prte_oob_base, align 8, !tbaa !38
  %45 = icmp slt i32 %44, 64
  br i1 %45, label %46, label %59

46:                                               ; preds = %43
  %47 = load i32, ptr @prte_oob_base, align 8, !tbaa !38
  %48 = sext i32 %47 to i64
  %49 = getelementptr inbounds [0 x %struct.pmix_output_desc_t], ptr @pmix_output_info, i64 0, i64 %48
  %50 = getelementptr inbounds nuw %struct.pmix_output_desc_t, ptr %49, i32 0, i32 2
  %51 = load i32, ptr %50, align 4, !tbaa !42
  %52 = icmp sge i32 %51, 5
  br i1 %52, label %53, label %59

53:                                               ; preds = %46
  %54 = load i32, ptr @prte_oob_base, align 8, !tbaa !38
  %55 = call ptr @prte_util_print_name_args(ptr noundef @prte_process_info)
  %56 = load ptr, ptr %8, align 8, !tbaa !9
  %57 = getelementptr inbounds nuw %struct.prte_oob_tcp_peer_t, ptr %56, i32 0, i32 1
  %58 = call ptr @prte_util_print_name_args(ptr noundef %57)
  call void (i32, ptr, ...) @pmix_output(i32 noundef %54, ptr noundef @.str, ptr noundef %55, ptr noundef @.str.1, i32 noundef 101, ptr noundef %58)
  br label %59

59:                                               ; preds = %53, %46, %43, %40
  %60 = call ptr @pmix_obj_new_tma(ptr noundef @prte_oob_tcp_conn_op_t_class, ptr noundef null)
  store ptr %60, ptr %9, align 8, !tbaa !9
  %61 = load ptr, ptr %8, align 8, !tbaa !9
  %62 = load ptr, ptr %9, align 8, !tbaa !9
  %63 = getelementptr inbounds nuw %struct.prte_oob_tcp_conn_op_t, ptr %62, i32 0, i32 1
  store ptr %61, ptr %63, align 8, !tbaa !44
  br label %64

64:                                               ; preds = %59
  %65 = load ptr, ptr %9, align 8, !tbaa !9
  %66 = getelementptr inbounds nuw %struct.prte_oob_tcp_conn_op_t, ptr %65, i32 0, i32 2
  %67 = load ptr, ptr @prte_event_base, align 8, !tbaa !46
  %68 = load ptr, ptr %9, align 8, !tbaa !9
  %69 = call i32 @prte_event_assign(ptr noundef %66, ptr noundef %67, i32 noundef -1, i16 noundef signext 4, ptr noundef @prte_oob_tcp_peer_try_connect, ptr noundef %68)
  call void @pmix_atomic_wmb()
  %70 = load ptr, ptr %9, align 8, !tbaa !9
  %71 = getelementptr inbounds nuw %struct.prte_oob_tcp_conn_op_t, ptr %70, i32 0, i32 2
  call void @event_active(ptr noundef %71, i32 noundef 4, i16 noundef signext 1)
  br label %72

72:                                               ; preds = %64
  br label %73

73:                                               ; preds = %72
  call void @llvm.lifetime.end.p0(i64 8, ptr %9) #12
  br label %74

74:                                               ; preds = %73
  br label %75

75:                                               ; preds = %74
  br label %88

76:                                               ; preds = %32
  %77 = load ptr, ptr %8, align 8, !tbaa !9
  %78 = getelementptr inbounds nuw %struct.prte_oob_tcp_peer_t, ptr %77, i32 0, i32 9
  %79 = load i8, ptr %78, align 8, !tbaa !47, !range !35, !noundef !36
  %80 = trunc i8 %79 to i1
  br i1 %80, label %87, label %81

81:                                               ; preds = %76
  %82 = load ptr, ptr %8, align 8, !tbaa !9
  %83 = getelementptr inbounds nuw %struct.prte_oob_tcp_peer_t, ptr %82, i32 0, i32 9
  store i8 1, ptr %83, align 8, !tbaa !47
  call void @pmix_atomic_wmb()
  %84 = load ptr, ptr %8, align 8, !tbaa !9
  %85 = getelementptr inbounds nuw %struct.prte_oob_tcp_peer_t, ptr %84, i32 0, i32 8
  %86 = call i32 @event_add(ptr noundef %85, ptr noundef null)
  br label %87

87:                                               ; preds = %81, %76
  br label %88

88:                                               ; preds = %87, %75
  br label %89

89:                                               ; preds = %88, %27
  call void @llvm.lifetime.end.p0(i64 8, ptr %8) #12
  call void @llvm.lifetime.end.p0(i64 8, ptr %7) #12
  ret void
}