; Function Attrs: nounwind uwtable
define void @prte_oob_tcp_queue_msg(i32 noundef %0, i16 noundef signext %1, ptr noundef %2) local_unnamed_addr #0 {
  fence acquire
  %4 = getelementptr inbounds nuw i8, ptr %2, i64 272
  %5 = load ptr, ptr %4, align 8, !tbaa !3
  %6 = getelementptr inbounds nuw i8, ptr %5, i64 1392
  %7 = load ptr, ptr %6, align 8, !tbaa !28
  %8 = icmp eq ptr %7, null
  br i1 %8, label %9, label %10

9:                                                ; preds = %3
  store ptr %2, ptr %6, align 8, !tbaa !28
  br label %20

10:                                               ; preds = %3
  %11 = getelementptr inbounds nuw i8, ptr %5, i64 1240
  %12 = getelementptr inbounds nuw i8, ptr %5, i64 1368
  %13 = load ptr, ptr %12, align 8, !tbaa !31
  %14 = getelementptr inbounds nuw i8, ptr %2, i64 128
  store ptr %13, ptr %14, align 8, !tbaa !31
  %15 = getelementptr inbounds nuw i8, ptr %13, i64 120
  store volatile ptr %2, ptr %15, align 8, !tbaa !32
  %16 = getelementptr inbounds nuw i8, ptr %2, i64 120
  store ptr %11, ptr %16, align 8, !tbaa !32
  store ptr %2, ptr %12, align 8, !tbaa !31
  %17 = getelementptr inbounds nuw i8, ptr %5, i64 1384
  %18 = load volatile i64, ptr %17, align 8, !tbaa !33
  %19 = add i64 %18, 1
  store volatile i64 %19, ptr %17, align 8, !tbaa !33
  br label %20

20:                                               ; preds = %10, %9
  %21 = getelementptr inbounds nuw i8, ptr %2, i64 280
  %22 = load i8, ptr %21, align 8, !tbaa !34, !range !35, !noundef !36
  %23 = trunc nuw i8 %22 to i1
  br i1 %23, label %24, label %67

24:                                               ; preds = %20
  %25 = getelementptr inbounds nuw i8, ptr %5, i64 704
  %26 = load i32, ptr %25, align 8, !tbaa !37
  %.not = icmp eq i32 %26, 5
  br i1 %.not, label %60, label %27

27:                                               ; preds = %24
  store i32 3, ptr %25, align 8, !tbaa !37
  %28 = load i32, ptr @prte_oob_base, align 8, !tbaa !38
  %or.cond = icmp ult i32 %28, 64
  br i1 %or.cond, label %29, label %38

29:                                               ; preds = %27
  %30 = zext nneg i32 %28 to i64
  %31 = getelementptr inbounds nuw [0 x %struct.pmix_output_desc_t], ptr @pmix_output_info, i64 0, i64 %30, i32 2
  %32 = load i32, ptr %31, align 4, !tbaa !42
  %33 = icmp sgt i32 %32, 4
  br i1 %33, label %34, label %38

34:                                               ; preds = %29
  %35 = tail call ptr @prte_util_print_name_args(ptr noundef nonnull @prte_process_info) #16
  %36 = getelementptr inbounds nuw i8, ptr %5, i64 144
  %37 = tail call ptr @prte_util_print_name_args(ptr noundef nonnull %36) #16
  tail call void (i32, ptr, ...) @pmix_output(i32 noundef %28, ptr noundef nonnull @.str, ptr noundef %35, ptr noundef nonnull @.str.1, i32 noundef 101, ptr noundef %37) #16
  br label %38

38:                                               ; preds = %34, %29, %27
  %39 = load i64, ptr getelementptr inbounds nuw (i8, ptr @prte_oob_tcp_conn_op_t_class, i64 56), align 8, !tbaa !44
  %40 = tail call noalias noundef ptr @malloc(i64 noundef %39) #17
  %41 = load i32, ptr @pmix_class_init_epoch, align 4, !tbaa !46
  %42 = load i32, ptr getelementptr inbounds nuw (i8, ptr @prte_oob_tcp_conn_op_t_class, i64 32), align 8, !tbaa !47
  %.not.i = icmp eq i32 %41, %42
  br i1 %.not.i, label %44, label %43

43:                                               ; preds = %38
  tail call void @pmix_class_initialize(ptr noundef nonnull @prte_oob_tcp_conn_op_t_class) #16
  br label %44

44:                                               ; preds = %43, %38
  %.not22.i = icmp eq ptr %40, null
  br i1 %.not22.i, label %pmix_obj_new_tma.exit, label %45

45:                                               ; preds = %44
  %46 = tail call i32 @pthread_mutex_init(ptr noundef nonnull %40, ptr noundef null) #16
  %47 = getelementptr inbounds nuw i8, ptr %40, i64 40
  store ptr @prte_oob_tcp_conn_op_t_class, ptr %47, align 8, !tbaa !48
  %48 = getelementptr inbounds nuw i8, ptr %40, i64 48
  store i32 1, ptr %48, align 8, !tbaa !49
  %49 = getelementptr inbounds nuw i8, ptr %40, i64 56
  %50 = getelementptr inbounds nuw i8, ptr %40, i64 96
  tail call void @llvm.memset.p0.i64(ptr noundef nonnull align 8 dereferenceable(32) %49, i8 0, i64 32, i1 false)
  tail call void @llvm.memset.p0.i64(ptr noundef nonnull align 8 dereferenceable(24) %50, i8 0, i64 24, i1 false)
  %51 = load ptr, ptr getelementptr inbounds nuw (i8, ptr @prte_oob_tcp_conn_op_t_class, i64 40), align 8, !tbaa !50
  %52 = load ptr, ptr %51, align 8, !tbaa !51
  %.not6.i.i = icmp eq ptr %52, null
  br i1 %.not6.i.i, label %pmix_obj_new_tma.exit, label %.lr.ph.i.i

.lr.ph.i.i:                                       ; preds = %45, %.lr.ph.i.i
  %53 = phi ptr [ %55, %.lr.ph.i.i ], [ %52, %45 ]
  %.07.i.i = phi ptr [ %54, %.lr.ph.i.i ], [ %51, %45 ]
  tail call void %53(ptr noundef nonnull %40) #16
  %54 = getelementptr inbounds nuw i8, ptr %.07.i.i, i64 8
  %55 = load ptr, ptr %54, align 8, !tbaa !51
  %.not.i.i = icmp eq ptr %55, null
  br i1 %.not.i.i, label %pmix_obj_new_tma.exit, label %.lr.ph.i.i, !llvm.loop !52

pmix_obj_new_tma.exit:                            ; preds = %.lr.ph.i.i, %44, %45
  %56 = getelementptr inbounds nuw i8, ptr %40, i64 120
  store ptr %5, ptr %56, align 8, !tbaa !54
  %57 = getelementptr inbounds nuw i8, ptr %40, i64 128
  %58 = load ptr, ptr @prte_event_base, align 8, !tbaa !56
  %59 = tail call i32 @prte_event_assign(ptr noundef nonnull %57, ptr noundef %58, i32 noundef -1, i16 noundef signext 4, ptr noundef nonnull @prte_oob_tcp_peer_try_connect, ptr noundef %40) #16
  fence release
  tail call void @event_active(ptr noundef nonnull %57, i32 noundef 4, i16 noundef signext 1) #16
  br label %67

60:                                               ; preds = %24
  %61 = getelementptr inbounds nuw i8, ptr %5, i64 840
  %62 = load i8, ptr %61, align 8, !tbaa !57, !range !35, !noundef !36
  %63 = trunc nuw i8 %62 to i1
  br i1 %63, label %67, label %64

64:                                               ; preds = %60
  store i8 1, ptr %61, align 8, !tbaa !57
  fence release
  %65 = getelementptr inbounds nuw i8, ptr %5, i64 712
  %66 = tail call i32 @event_add(ptr noundef nonnull %65, ptr noundef null) #16
  br label %67

67:                                               ; preds = %pmix_obj_new_tma.exit, %64, %60, %20
  ret void
}